target datalayout = "e-m:e-p270:32:32-p271:32:32-p272:64:64-i64:64-i128:128-f80:128-n8:16:32:64-S128"
target triple = "x86_64-pc-linux-gnu"

%struct.node_state_flags_t = type { i32, ptr }

@.str.21 = private unnamed_addr constant [8 x i8] c"INVALID\00", align 1

; Function Attrs: nounwind uwtable
define dso_local ptr @node_state_base_string(i32 noundef %0) #0 {
  %2 = alloca ptr, align 8
  %3 = alloca i32, align 4
  %4 = alloca i32, align 4
  %5 = alloca i32, align 4
  store i32 %0, ptr %3, align 4
  %6 = load i32, ptr %3, align 4
  %7 = and i32 %6, 15
  store i32 %7, ptr %3, align 4
  call void @llvm.lifetime.start.p0(i64 4, ptr %4) #11
  store i32 0, ptr %4, align 4
  br label %8

8:                                                ; preds = %28, %1
  %9 = load i32, ptr %4, align 4
  %10 = sext i32 %9 to i64
  %11 = icmp ult i64 %10, 7
  br i1 %11, label %13, label %12

12:                                               ; preds = %8
  store i32 2, ptr %5, align 4
  br label %31

13:                                               ; preds = %8
  %14 = load i32, ptr %4, align 4
  %15 = sext i32 %14 to i64
  %16 = getelementptr inbounds [7 x %struct.node_state_flags_t], ptr @node_states, i64 0, i64 %15
  %17 = getelementptr inbounds nuw %struct.node_state_flags_t, ptr %16, i32 0, i32 0
  %18 = load i32, ptr %17, align 16
  %19 = load i32, ptr %3, align 4
  %20 = icmp eq i32 %18, %19
  br i1 %20, label %21, label %27

21:                                               ; preds = %13
  %22 = load i32, ptr %4, align 4
  %23 = sext i32 %22 to i64
  %24 = getelementptr inbounds [7 x %struct.node_state_flags_t], ptr @node_states, i64 0, i64 %23
  %25 = getelementptr inbounds nuw %struct.node_state_flags_t, ptr %24, i32 0, i32 1
  %26 = load ptr, ptr %25, align 8
  store ptr %26, ptr %2, align 8
  store i32 1, ptr %5, align 4
  br label %31

27:                                               ; preds = %13
  br label %28

28:                                               ; preds = %27
  %29 = load i32, ptr %4, align 4
  %30 = add nsw i32 %29, 1
  store i32 %30, ptr %4, align 4
  br label %8, !llvm.loop !13

31:                                               ; preds = %21, %12
  call void @llvm.lifetime.end.p0(i64 4, ptr %4) #11
  %32 = load i32, ptr %5, align 4
  switch i32 %32, label %36 [
    i32 2, label %33
    i32 1, label %34
  ]

33:                                               ; preds = %31
  store ptr @.str.21, ptr %2, align 8
  br label %34

34:                                               ; preds = %33, %31
  %35 = load ptr, ptr %2, align 8
  ret ptr %35

36:                                               ; preds = %31
  unreachable
}