; Function Attrs: nofree norecurse nosync nounwind memory(none) uwtable
define dso_local ptr @node_state_base_string(i32 noundef %0) #2 {
  %2 = and i32 %0, 15
  br label %4

3:                                                ; preds = %4
  %indvars.iv.next = add nuw nsw i64 %indvars.iv, 1
  %exitcond = icmp eq i64 %indvars.iv.next, 7
  br i1 %exitcond, label %.loopexit, label %4, !llvm.loop !13

4:                                                ; preds = %1, %3
  %indvars.iv = phi i64 [ 0, %1 ], [ %indvars.iv.next, %3 ]
  %5 = getelementptr inbounds nuw [7 x %struct.node_state_flags_t], ptr @node_states, i64 0, i64 %indvars.iv
  %6 = load i32, ptr %5, align 16
  %7 = icmp eq i32 %6, %2
  br i1 %7, label %8, label %3

8:                                                ; preds = %4
  %9 = getelementptr inbounds nuw i8, ptr %5, i64 8
  %10 = load ptr, ptr %9, align 8
  br label %.loopexit

.loopexit:                                        ; preds = %3, %8
  %spec.select = phi ptr [ %10, %8 ], [ @.str.21, %3 ]
  ret ptr %spec.select
}